; Function Attrs: mustprogress uwtable
define noundef ptr @_ZN2cv11FileStorage4Impl12getsFromFileEPci(ptr noundef nonnull readonly align 8 captures(none) dereferenceable(700) %0, ptr noundef %1, i32 noundef %2) local_unnamed_addr #13 align 2 personality ptr @__gxx_personality_v0 {
  %4 = alloca %"class.std::__cxx11::basic_string", align 8
  %5 = alloca %"class.std::allocator", align 1
  %6 = getelementptr inbounds nuw i8, ptr %0, i64 56
  %7 = load ptr, ptr %6, align 8, !tbaa !201
  %.not = icmp eq ptr %7, null
  br i1 %.not, label %10, label %8

8:                                                ; preds = %3
  %9 = tail call ptr @fgets(ptr noundef %1, i32 noundef %2, ptr noundef nonnull %7)
  br label %25

10:                                               ; preds = %3
  %11 = getelementptr inbounds nuw i8, ptr %0, i64 64
  %12 = load ptr, ptr %11, align 8, !tbaa !220
  %.not11 = icmp eq ptr %12, null
  br i1 %.not11, label %15, label %13

13:                                               ; preds = %10
  %14 = tail call ptr @gzgets(ptr noundef nonnull %12, ptr noundef %1, i32 noundef %2)
  br label %25

15:                                               ; preds = %10
  call void @llvm.lifetime.start.p0(i64 32, ptr nonnull %4) #41
  call void @llvm.lifetime.start.p0(i64 1, ptr nonnull %5) #41
  call void @_ZNSt7__cxx1112basic_stringIcSt11char_traitsIcESaIcEEC2EPKcRKS3_(ptr noundef nonnull align 8 dereferenceable(32) %4, ptr noundef nonnull @.str.63, ptr noundef nonnull align 1 dereferenceable(1) %5)
  invoke void @_ZN2cv5errorEiRKNSt7__cxx1112basic_stringIcSt11char_traitsIcESaIcEEEPKcS9_i(i32 noundef -2, ptr noundef nonnull align 8 dereferenceable(32) %4, ptr noundef nonnull @__func__._ZN2cv11FileStorage4Impl12getsFromFileEPci, ptr noundef nonnull @.str.11, i32 noundef 841) #42
          to label %16 unwind label %17

16:                                               ; preds = %15
  unreachable

17:                                               ; preds = %15
  %18 = landingpad { ptr, i32 }
          cleanup
  %19 = load ptr, ptr %4, align 8, !tbaa !12
  %20 = getelementptr inbounds nuw i8, ptr %4, i64 16
  %21 = icmp eq ptr %19, %20
  br i1 %21, label %_ZNKSt7__cxx1112basic_stringIcSt11char_traitsIcESaIcEE11_M_is_localEv.exit.thread.i.i, label %_ZNKSt7__cxx1112basic_stringIcSt11char_traitsIcESaIcEE11_M_is_localEv.exit.i.i

_ZNKSt7__cxx1112basic_stringIcSt11char_traitsIcESaIcEE11_M_is_localEv.exit.thread.i.i: ; preds = %17
  %22 = getelementptr inbounds nuw i8, ptr %4, i64 8
  %23 = load i64, ptr %22, align 8, !tbaa !18
  %24 = icmp ult i64 %23, 16
  call void @llvm.assume(i1 %24)
  br label %_ZNSt7__cxx1112basic_stringIcSt11char_traitsIcESaIcEED2Ev.exit

_ZNKSt7__cxx1112basic_stringIcSt11char_traitsIcESaIcEE11_M_is_localEv.exit.i.i: ; preds = %17
  call void @_ZdlPv(ptr noundef %19) #43
  br label %_ZNSt7__cxx1112basic_stringIcSt11char_traitsIcESaIcEED2Ev.exit

_ZNSt7__cxx1112basic_stringIcSt11char_traitsIcESaIcEED2Ev.exit: ; preds = %_ZNKSt7__cxx1112basic_stringIcSt11char_traitsIcESaIcEE11_M_is_localEv.exit.i.i, %_ZNKSt7__cxx1112basic_stringIcSt11char_traitsIcESaIcEE11_M_is_localEv.exit.thread.i.i
  call void @llvm.lifetime.end.p0(i64 1, ptr nonnull %5) #41
  call void @llvm.lifetime.end.p0(i64 32, ptr nonnull %4) #41
  resume { ptr, i32 } %18

25:                                               ; preds = %13, %8
  %.08 = phi ptr [ %9, %8 ], [ %14, %13 ]
  ret ptr %.08
}